#include <math.h>
#include <stdio.h>
#include <stdlib.h>
#include <string.h>

int f()
{
	int a[15],i,m=0,s=0,j;
	scanf("%d",&a[0]);
	if(a[0]==-1)s=-1;
	else
	{
		for(i=1;a[i-1]!=0;i++)
		{
			scanf("%d",&a[i]);
			m=m+1;
		}
	     for(i=0;i<m;i++)
		 {	
			for(j=0;j<m;j++)
			 {
				 if(a[i]==2*a[j])s=s+1;
			 }
		 }
	}
	return s;
}
void main()
{
	int a[100],i=0,j;
	while(1)
	{
	  a[i]=f();
      if(a[i]==-1)break;
	  i++;
	}
	for(j=0;j<i;j++)
	{
		printf("%d",a[j]);
		if(j!=i-1)printf("\n");
	}
}
